target datalayout = "e-m:e-p270:32:32-p271:32:32-p272:64:64-i64:64-i128:128-f80:128-n8:16:32:64-S128"
target triple = "x86_64-pc-linux-gnu"

%struct.typeinfo = type { ptr, ptr, ptr, i64, i64, i64, ptr }
%struct.listNode = type { ptr, ptr, ptr }
%struct.key_info = type { i64, [10 x i8], ptr }

@.str.31 = private unnamed_addr constant [1 x i8] zeroinitializer, align 1
@stdout = external global ptr, align 8
@.str.98 = private unnamed_addr constant [6 x i8] c"bytes\00", align 1
@.str.678 = private unnamed_addr constant [7 x i8] c"\1B[%dA\0D\00", align 1
@.str.722 = private unnamed_addr constant [17 x i8] c"Keys size:    %s\00", align 1
@.str.723 = private unnamed_addr constant [27 x i8] c"--- Top %llu key sizes ---\00", align 1
@.str.724 = private unnamed_addr constant [17 x i8] c"%3d %8s %-10s %s\00", align 1
@.str.725 = private unnamed_addr constant [26 x i8] c"--- Top size per type ---\00", align 1
@.str.726 = private unnamed_addr constant [15 x i8] c"%-10s %s is %s\00", align 1
@.str.727 = private unnamed_addr constant [44 x i8] c"--- Top length and cardinality per type ---\00", align 1
@.str.728 = private unnamed_addr constant [8 x i8] c"%llu %s\00", align 1
@.str.729 = private unnamed_addr constant [16 x i8] c"%-10s %s has %s\00", align 1

; Function Attrs: nounwind uwtable
define internal i32 @displayKeyStatsLengthType(ptr noundef %0) #0 {
  %2 = alloca ptr, align 8
  %3 = alloca ptr, align 8
  %4 = alloca ptr, align 8
  %5 = alloca i32, align 4
  %6 = alloca [256 x i8], align 16
  %7 = alloca ptr, align 8
  store ptr %0, ptr %2, align 8, !tbaa !23
  call void @llvm.lifetime.start.p0(i64 8, ptr %3) #15
  call void @llvm.lifetime.start.p0(i64 8, ptr %4) #15
  call void @llvm.lifetime.start.p0(i64 4, ptr %5) #15
  store i32 0, ptr %5, align 4, !tbaa !10
  call void @llvm.lifetime.start.p0(i64 256, ptr %6) #15
  %8 = call i32 (ptr, ...) @cleanPrintfln(ptr noundef @.str.727)
  %9 = load i32, ptr %5, align 4, !tbaa !10
  %10 = add nsw i32 %9, %8
  store i32 %10, ptr %5, align 4, !tbaa !10
  %11 = load ptr, ptr %2, align 8, !tbaa !23
  %12 = call ptr @dictGetIterator(ptr noundef %11)
  store ptr %12, ptr %3, align 8, !tbaa !25
  br label %13

13:                                               ; preds = %56, %1
  %14 = load ptr, ptr %3, align 8, !tbaa !25
  %15 = call ptr @dictNext(ptr noundef %14)
  store ptr %15, ptr %4, align 8, !tbaa !29
  %16 = icmp ne ptr %15, null
  br i1 %16, label %17, label %57

17:                                               ; preds = %13
  call void @llvm.lifetime.start.p0(i64 8, ptr %7) #15
  %18 = load ptr, ptr %4, align 8, !tbaa !29
  %19 = call ptr @dictGetVal(ptr noundef %18)
  store ptr %19, ptr %7, align 8, !tbaa !16
  %20 = load ptr, ptr %7, align 8, !tbaa !16
  %21 = getelementptr inbounds nuw %struct.typeinfo, ptr %20, i32 0, i32 6
  %22 = load ptr, ptr %21, align 8, !tbaa !232
  %23 = icmp ne ptr %22, null
  br i1 %23, label %24, label %56

24:                                               ; preds = %17
  %25 = load ptr, ptr %7, align 8, !tbaa !16
  %26 = getelementptr inbounds nuw %struct.typeinfo, ptr %25, i32 0, i32 2
  %27 = load ptr, ptr %26, align 8, !tbaa !335
  %28 = call i32 @strcmp(ptr noundef %27, ptr noundef @.str.98) #16
  %29 = icmp ne i32 %28, 0
  br i1 %29, label %36, label %30

30:                                               ; preds = %24
  %31 = getelementptr inbounds [256 x i8], ptr %6, i64 0, i64 0
  %32 = load ptr, ptr %7, align 8, !tbaa !16
  %33 = getelementptr inbounds nuw %struct.typeinfo, ptr %32, i32 0, i32 3
  %34 = load i64, ptr %33, align 8, !tbaa !334
  %35 = call ptr @bytesToHuman(ptr noundef %31, i64 noundef 256, i64 noundef %34)
  br label %45

36:                                               ; preds = %24
  %37 = getelementptr inbounds [256 x i8], ptr %6, i64 0, i64 0
  %38 = load ptr, ptr %7, align 8, !tbaa !16
  %39 = getelementptr inbounds nuw %struct.typeinfo, ptr %38, i32 0, i32 3
  %40 = load i64, ptr %39, align 8, !tbaa !334
  %41 = load ptr, ptr %7, align 8, !tbaa !16
  %42 = getelementptr inbounds nuw %struct.typeinfo, ptr %41, i32 0, i32 2
  %43 = load ptr, ptr %42, align 8, !tbaa !335
  %44 = call i32 (ptr, i64, ptr, ...) @snprintf(ptr noundef %37, i64 noundef 256, ptr noundef @.str.728, i64 noundef %40, ptr noundef %43) #15
  br label %45

45:                                               ; preds = %36, %30
  %46 = load ptr, ptr %7, align 8, !tbaa !16
  %47 = getelementptr inbounds nuw %struct.typeinfo, ptr %46, i32 0, i32 0
  %48 = load ptr, ptr %47, align 8, !tbaa !234
  %49 = load ptr, ptr %7, align 8, !tbaa !16
  %50 = getelementptr inbounds nuw %struct.typeinfo, ptr %49, i32 0, i32 6
  %51 = load ptr, ptr %50, align 8, !tbaa !232
  %52 = getelementptr inbounds [256 x i8], ptr %6, i64 0, i64 0
  %53 = call i32 (ptr, ...) @cleanPrintfln(ptr noundef @.str.729, ptr noundef %48, ptr noundef %51, ptr noundef %52)
  %54 = load i32, ptr %5, align 4, !tbaa !10
  %55 = add nsw i32 %54, %53
  store i32 %55, ptr %5, align 4, !tbaa !10
  br label %56

56:                                               ; preds = %45, %17
  call void @llvm.lifetime.end.p0(i64 8, ptr %7) #15
  br label %13, !llvm.loop !593

57:                                               ; preds = %13
  %58 = load ptr, ptr %3, align 8, !tbaa !25
  call void @dictReleaseIterator(ptr noundef %58)
  %59 = load i32, ptr %5, align 4, !tbaa !10
  call void @llvm.lifetime.end.p0(i64 256, ptr %6) #15
  call void @llvm.lifetime.end.p0(i64 4, ptr %5) #15
  call void @llvm.lifetime.end.p0(i64 8, ptr %4) #15
  call void @llvm.lifetime.end.p0(i64 8, ptr %3) #15
  ret i32 %59
}

; Function Attrs: nounwind uwtable
define internal i32 @displayKeyStatsSizeType(ptr noundef %0) #0 {
  %2 = alloca ptr, align 8
  %3 = alloca ptr, align 8
  %4 = alloca ptr, align 8
  %5 = alloca i32, align 4
  %6 = alloca [256 x i8], align 16
  %7 = alloca ptr, align 8
  store ptr %0, ptr %2, align 8, !tbaa !23
  call void @llvm.lifetime.start.p0(i64 8, ptr %3) #15
  call void @llvm.lifetime.start.p0(i64 8, ptr %4) #15
  call void @llvm.lifetime.start.p0(i64 4, ptr %5) #15
  store i32 0, ptr %5, align 4, !tbaa !10
  call void @llvm.lifetime.start.p0(i64 256, ptr %6) #15
  %8 = call i32 (ptr, ...) @cleanPrintfln(ptr noundef @.str.725)
  %9 = load i32, ptr %5, align 4, !tbaa !10
  %10 = add nsw i32 %9, %8
  store i32 %10, ptr %5, align 4, !tbaa !10
  %11 = load ptr, ptr %2, align 8, !tbaa !23
  %12 = call ptr @dictGetIterator(ptr noundef %11)
  store ptr %12, ptr %3, align 8, !tbaa !25
  br label %13

13:                                               ; preds = %39, %1
  %14 = load ptr, ptr %3, align 8, !tbaa !25
  %15 = call ptr @dictNext(ptr noundef %14)
  store ptr %15, ptr %4, align 8, !tbaa !29
  %16 = icmp ne ptr %15, null
  br i1 %16, label %17, label %40

17:                                               ; preds = %13
  call void @llvm.lifetime.start.p0(i64 8, ptr %7) #15
  %18 = load ptr, ptr %4, align 8, !tbaa !29
  %19 = call ptr @dictGetVal(ptr noundef %18)
  store ptr %19, ptr %7, align 8, !tbaa !16
  %20 = load ptr, ptr %7, align 8, !tbaa !16
  %21 = getelementptr inbounds nuw %struct.typeinfo, ptr %20, i32 0, i32 6
  %22 = load ptr, ptr %21, align 8, !tbaa !232
  %23 = icmp ne ptr %22, null
  br i1 %23, label %24, label %39

24:                                               ; preds = %17
  %25 = load ptr, ptr %7, align 8, !tbaa !16
  %26 = getelementptr inbounds nuw %struct.typeinfo, ptr %25, i32 0, i32 0
  %27 = load ptr, ptr %26, align 8, !tbaa !234
  %28 = load ptr, ptr %7, align 8, !tbaa !16
  %29 = getelementptr inbounds nuw %struct.typeinfo, ptr %28, i32 0, i32 6
  %30 = load ptr, ptr %29, align 8, !tbaa !232
  %31 = getelementptr inbounds [256 x i8], ptr %6, i64 0, i64 0
  %32 = load ptr, ptr %7, align 8, !tbaa !16
  %33 = getelementptr inbounds nuw %struct.typeinfo, ptr %32, i32 0, i32 3
  %34 = load i64, ptr %33, align 8, !tbaa !334
  %35 = call ptr @bytesToHuman(ptr noundef %31, i64 noundef 256, i64 noundef %34)
  %36 = call i32 (ptr, ...) @cleanPrintfln(ptr noundef @.str.726, ptr noundef %27, ptr noundef %30, ptr noundef %35)
  %37 = load i32, ptr %5, align 4, !tbaa !10
  %38 = add nsw i32 %37, %36
  store i32 %38, ptr %5, align 4, !tbaa !10
  br label %39

39:                                               ; preds = %24, %17
  call void @llvm.lifetime.end.p0(i64 8, ptr %7) #15
  br label %13, !llvm.loop !592

40:                                               ; preds = %13
  %41 = load ptr, ptr %3, align 8, !tbaa !25
  call void @dictReleaseIterator(ptr noundef %41)
  %42 = load i32, ptr %5, align 4, !tbaa !10
  call void @llvm.lifetime.end.p0(i64 256, ptr %6) #15
  call void @llvm.lifetime.end.p0(i64 4, ptr %5) #15
  call void @llvm.lifetime.end.p0(i64 8, ptr %4) #15
  call void @llvm.lifetime.end.p0(i64 8, ptr %3) #15
  ret i32 %42
}

; Function Attrs: nounwind uwtable
define internal i32 @displayKeyStatsTopSizes(ptr noundef %0, i64 noundef %1) #0 {
  %3 = alloca ptr, align 8
  %4 = alloca i64, align 8
  %5 = alloca i32, align 4
  %6 = alloca i32, align 4
  %7 = alloca [32 x i8], align 16
  %8 = alloca ptr, align 8
  %9 = alloca ptr, align 8
  %10 = alloca ptr, align 8
  store ptr %0, ptr %3, align 8, !tbaa !145
  store i64 %1, ptr %4, align 8, !tbaa !27
  call void @llvm.lifetime.start.p0(i64 4, ptr %5) #15
  store i32 0, ptr %5, align 4, !tbaa !10
  call void @llvm.lifetime.start.p0(i64 4, ptr %6) #15
  store i32 0, ptr %6, align 4, !tbaa !10
  %11 = load i64, ptr %4, align 8, !tbaa !27
  %12 = call i32 (ptr, ...) @cleanPrintfln(ptr noundef @.str.723, i64 noundef %11)
  %13 = load i32, ptr %5, align 4, !tbaa !10
  %14 = add nsw i32 %13, %12
  store i32 %14, ptr %5, align 4, !tbaa !10
  call void @llvm.lifetime.start.p0(i64 32, ptr %7) #15
  call void @llvm.lifetime.start.p0(i64 8, ptr %8) #15
  %15 = load ptr, ptr %3, align 8, !tbaa !145
  %16 = call ptr @listGetIterator(ptr noundef %15, i32 noundef 0)
  store ptr %16, ptr %8, align 8, !tbaa !347
  call void @llvm.lifetime.start.p0(i64 8, ptr %9) #15
  br label %17

17:                                               ; preds = %21, %2
  %18 = load ptr, ptr %8, align 8, !tbaa !347
  %19 = call ptr @listNext(ptr noundef %18)
  store ptr %19, ptr %9, align 8, !tbaa !103
  %20 = icmp ne ptr %19, null
  br i1 %20, label %21, label %41

21:                                               ; preds = %17
  call void @llvm.lifetime.start.p0(i64 8, ptr %10) #15
  %22 = load ptr, ptr %9, align 8, !tbaa !103
  %23 = getelementptr inbounds nuw %struct.listNode, ptr %22, i32 0, i32 2
  %24 = load ptr, ptr %23, align 8, !tbaa !104
  store ptr %24, ptr %10, align 8, !tbaa !349
  %25 = load i32, ptr %6, align 4, !tbaa !10
  %26 = add nsw i32 %25, 1
  store i32 %26, ptr %6, align 4, !tbaa !10
  %27 = getelementptr inbounds [32 x i8], ptr %7, i64 0, i64 0
  %28 = load ptr, ptr %10, align 8, !tbaa !349
  %29 = getelementptr inbounds nuw %struct.key_info, ptr %28, i32 0, i32 0
  %30 = load i64, ptr %29, align 8, !tbaa !576
  %31 = call ptr @bytesToHuman(ptr noundef %27, i64 noundef 32, i64 noundef %30)
  %32 = load ptr, ptr %10, align 8, !tbaa !349
  %33 = getelementptr inbounds nuw %struct.key_info, ptr %32, i32 0, i32 1
  %34 = getelementptr inbounds [10 x i8], ptr %33, i64 0, i64 0
  %35 = load ptr, ptr %10, align 8, !tbaa !349
  %36 = getelementptr inbounds nuw %struct.key_info, ptr %35, i32 0, i32 2
  %37 = load ptr, ptr %36, align 8, !tbaa !351
  %38 = call i32 (ptr, ...) @cleanPrintfln(ptr noundef @.str.724, i32 noundef %26, ptr noundef %31, ptr noundef %34, ptr noundef %37)
  %39 = load i32, ptr %5, align 4, !tbaa !10
  %40 = add nsw i32 %39, %38
  store i32 %40, ptr %5, align 4, !tbaa !10
  call void @llvm.lifetime.end.p0(i64 8, ptr %10) #15
  br label %17, !llvm.loop !591

41:                                               ; preds = %17
  %42 = load ptr, ptr %8, align 8, !tbaa !347
  call void @listReleaseIterator(ptr noundef %42)
  %43 = load i32, ptr %5, align 4, !tbaa !10
  call void @llvm.lifetime.end.p0(i64 8, ptr %9) #15
  call void @llvm.lifetime.end.p0(i64 8, ptr %8) #15
  call void @llvm.lifetime.end.p0(i64 32, ptr %7) #15
  call void @llvm.lifetime.end.p0(i64 4, ptr %6) #15
  call void @llvm.lifetime.end.p0(i64 4, ptr %5) #15
  ret i32 %43
}

; Function Attrs: nounwind uwtable
define internal void @displayKeyStats(i64 noundef %0, i64 noundef %1, i64 noundef %2, ptr noundef %3, ptr noundef %4, ptr noundef %5, i64 noundef %6, i32 noundef %7) #0 {
  %9 = alloca i64, align 8
  %10 = alloca i64, align 8
  %11 = alloca i64, align 8
  %12 = alloca ptr, align 8
  %13 = alloca ptr, align 8
  %14 = alloca ptr, align 8
  %15 = alloca i64, align 8
  %16 = alloca i32, align 4
  %17 = alloca i32, align 4
  %18 = alloca [256 x i8], align 16
  store i64 %0, ptr %9, align 8, !tbaa !221
  store i64 %1, ptr %10, align 8, !tbaa !221
  store i64 %2, ptr %11, align 8, !tbaa !221
  store ptr %3, ptr %12, align 8, !tbaa !23
  store ptr %4, ptr %13, align 8, !tbaa !23
  store ptr %5, ptr %14, align 8, !tbaa !145
  store i64 %6, ptr %15, align 8, !tbaa !27
  store i32 %7, ptr %16, align 4, !tbaa !10
  call void @llvm.lifetime.start.p0(i64 4, ptr %17) #15
  store i32 0, ptr %17, align 4, !tbaa !10
  call void @llvm.lifetime.start.p0(i64 256, ptr %18) #15
  %19 = load i64, ptr %9, align 8, !tbaa !221
  %20 = load i64, ptr %10, align 8, !tbaa !221
  %21 = call i32 @displayKeyStatsProgressbar(i64 noundef %19, i64 noundef %20)
  %22 = load i32, ptr %17, align 4, !tbaa !10
  %23 = add nsw i32 %22, %21
  store i32 %23, ptr %17, align 4, !tbaa !10
  %24 = getelementptr inbounds [256 x i8], ptr %18, i64 0, i64 0
  %25 = load i64, ptr %11, align 8, !tbaa !221
  %26 = call ptr @bytesToHuman(ptr noundef %24, i64 noundef 256, i64 noundef %25)
  %27 = call i32 (ptr, ...) @cleanPrintfln(ptr noundef @.str.722, ptr noundef %26)
  %28 = load i32, ptr %17, align 4, !tbaa !10
  %29 = add nsw i32 %28, %27
  store i32 %29, ptr %17, align 4, !tbaa !10
  %30 = call i32 (ptr, ...) @cleanPrintfln(ptr noundef @.str.31)
  %31 = load i32, ptr %17, align 4, !tbaa !10
  %32 = add nsw i32 %31, %30
  store i32 %32, ptr %17, align 4, !tbaa !10
  %33 = load ptr, ptr %14, align 8, !tbaa !145
  %34 = load i64, ptr %15, align 8, !tbaa !27
  %35 = call i32 @displayKeyStatsTopSizes(ptr noundef %33, i64 noundef %34)
  %36 = load i32, ptr %17, align 4, !tbaa !10
  %37 = add nsw i32 %36, %35
  store i32 %37, ptr %17, align 4, !tbaa !10
  %38 = call i32 (ptr, ...) @cleanPrintfln(ptr noundef @.str.31)
  %39 = load i32, ptr %17, align 4, !tbaa !10
  %40 = add nsw i32 %39, %38
  store i32 %40, ptr %17, align 4, !tbaa !10
  %41 = load ptr, ptr %12, align 8, !tbaa !23
  %42 = call i32 @displayKeyStatsSizeType(ptr noundef %41)
  %43 = load i32, ptr %17, align 4, !tbaa !10
  %44 = add nsw i32 %43, %42
  store i32 %44, ptr %17, align 4, !tbaa !10
  %45 = call i32 (ptr, ...) @cleanPrintfln(ptr noundef @.str.31)
  %46 = load i32, ptr %17, align 4, !tbaa !10
  %47 = add nsw i32 %46, %45
  store i32 %47, ptr %17, align 4, !tbaa !10
  %48 = load ptr, ptr %13, align 8, !tbaa !23
  %49 = call i32 @displayKeyStatsLengthType(ptr noundef %48)
  %50 = load i32, ptr %17, align 4, !tbaa !10
  %51 = add nsw i32 %50, %49
  store i32 %51, ptr %17, align 4, !tbaa !10
  %52 = load i32, ptr %16, align 4, !tbaa !10
  %53 = icmp ne i32 %52, 0
  br i1 %53, label %54, label %57

54:                                               ; preds = %8
  %55 = load i32, ptr %17, align 4, !tbaa !10
  %56 = call i32 (ptr, ...) @printf(ptr noundef @.str.678, i32 noundef %55)
  br label %57

57:                                               ; preds = %54, %8
  %58 = load ptr, ptr @stdout, align 8, !tbaa !12
  %59 = call i32 @fflush(ptr noundef %58)
  call void @llvm.lifetime.end.p0(i64 256, ptr %18) #15
  call void @llvm.lifetime.end.p0(i64 4, ptr %17) #15
  ret void
}