; Function Attrs: nounwind uwtable
define internal fastcc void @displayKeyStats(i64 noundef %0, i64 noundef range(i64 -2147483648, 2147483648) %1, i64 noundef %2, ptr noundef %3, ptr noundef %4, ptr noundef nonnull %5, i64 noundef %6, i32 noundef range(i32 0, 2) %7) unnamed_addr #0 {
  %9 = alloca [256 x i8], align 16
  %10 = alloca [256 x i8], align 16
  %11 = alloca [32 x i8], align 16
  %12 = alloca [256 x i8], align 16
  call void @llvm.lifetime.start.p0(i64 256, ptr nonnull %12) #33
  %13 = tail call fastcc i32 @displayKeyStatsProgressbar(i64 noundef %0, i64 noundef %1)
  %14 = call ptr @bytesToHuman(ptr noundef nonnull %12, i64 noundef 256, i64 noundef %2)
  %15 = call i32 (ptr, ...) @cleanPrintfln(ptr noundef nonnull @.str.722, ptr noundef nonnull %12)
  %16 = call i32 (ptr, ...) @cleanPrintfln(ptr noundef nonnull @.str.31)
  %17 = call i32 (ptr, ...) @cleanPrintfln(ptr noundef nonnull @.str.723, i64 noundef %6)
  call void @llvm.lifetime.start.p0(i64 32, ptr nonnull %11) #33
  %18 = call ptr @listGetIterator(ptr noundef nonnull %5, i32 noundef 0) #33
  %19 = call ptr @listNext(ptr noundef %18) #33
  %.not13.i = icmp eq ptr %19, null
  br i1 %.not13.i, label %displayKeyStatsTopSizes.exit, label %.lr.ph.i

.lr.ph.i:                                         ; preds = %8, %.lr.ph.i
  %20 = phi ptr [ %31, %.lr.ph.i ], [ %19, %8 ]
  %.015.i = phi i32 [ %30, %.lr.ph.i ], [ %17, %8 ]
  %.01114.i = phi i32 [ %23, %.lr.ph.i ], [ 0, %8 ]
  %21 = getelementptr inbounds nuw i8, ptr %20, i64 16
  %22 = load ptr, ptr %21, align 8, !tbaa !96
  %23 = add nuw nsw i32 %.01114.i, 1
  %24 = load i64, ptr %22, align 8, !tbaa !302
  %25 = call ptr @bytesToHuman(ptr noundef nonnull %11, i64 noundef 32, i64 noundef %24)
  %26 = getelementptr inbounds nuw i8, ptr %22, i64 8
  %27 = getelementptr inbounds nuw i8, ptr %22, i64 24
  %28 = load ptr, ptr %27, align 8, !tbaa !305
  %29 = call i32 (ptr, ...) @cleanPrintfln(ptr noundef nonnull @.str.724, i32 noundef %23, ptr noundef nonnull %11, ptr noundef nonnull %26, ptr noundef %28)
  %30 = add nsw i32 %29, %.015.i
  %31 = call ptr @listNext(ptr noundef %18) #33
  %.not.i = icmp eq ptr %31, null
  br i1 %.not.i, label %displayKeyStatsTopSizes.exit, label %.lr.ph.i, !llvm.loop !527

displayKeyStatsTopSizes.exit:                     ; preds = %.lr.ph.i, %8
  %.0.lcssa.i = phi i32 [ %17, %8 ], [ %30, %.lr.ph.i ]
  call void @listReleaseIterator(ptr noundef %18) #33
  call void @llvm.lifetime.end.p0(i64 32, ptr nonnull %11) #33
  %32 = call i32 (ptr, ...) @cleanPrintfln(ptr noundef nonnull @.str.31)
  call void @llvm.lifetime.start.p0(i64 256, ptr nonnull %10) #33
  %33 = call i32 (ptr, ...) @cleanPrintfln(ptr noundef nonnull @.str.725)
  %34 = call ptr @dictGetIterator(ptr noundef %3) #33
  %35 = call ptr @dictNext(ptr noundef %34) #33
  %.not13.i16 = icmp eq ptr %35, null
  br i1 %.not13.i16, label %displayKeyStatsSizeType.exit, label %.lr.ph.i17

.lr.ph.i17:                                       ; preds = %displayKeyStatsTopSizes.exit, %47
  %36 = phi ptr [ %48, %47 ], [ %35, %displayKeyStatsTopSizes.exit ]
  %.014.i = phi i32 [ %.1.i, %47 ], [ %33, %displayKeyStatsTopSizes.exit ]
  %37 = call ptr @dictGetVal(ptr noundef nonnull %36) #33
  %38 = getelementptr inbounds nuw i8, ptr %37, i64 48
  %39 = load ptr, ptr %38, align 8, !tbaa !209
  %.not12.i = icmp eq ptr %39, null
  br i1 %.not12.i, label %47, label %40

40:                                               ; preds = %.lr.ph.i17
  %41 = load ptr, ptr %37, align 8, !tbaa !211
  %42 = getelementptr inbounds nuw i8, ptr %37, i64 24
  %43 = load i64, ptr %42, align 8, !tbaa !308
  %44 = call ptr @bytesToHuman(ptr noundef nonnull %10, i64 noundef 256, i64 noundef %43)
  %45 = call i32 (ptr, ...) @cleanPrintfln(ptr noundef nonnull @.str.726, ptr noundef %41, ptr noundef nonnull %39, ptr noundef nonnull %10)
  %46 = add nsw i32 %45, %.014.i
  br label %47

47:                                               ; preds = %40, %.lr.ph.i17
  %.1.i = phi i32 [ %46, %40 ], [ %.014.i, %.lr.ph.i17 ]
  %48 = call ptr @dictNext(ptr noundef %34) #33
  %.not.i18 = icmp eq ptr %48, null
  br i1 %.not.i18, label %displayKeyStatsSizeType.exit, label %.lr.ph.i17, !llvm.loop !528

displayKeyStatsSizeType.exit:                     ; preds = %47, %displayKeyStatsTopSizes.exit
  %.0.lcssa.i19 = phi i32 [ %33, %displayKeyStatsTopSizes.exit ], [ %.1.i, %47 ]
  call void @dictReleaseIterator(ptr noundef %34) #33
  call void @llvm.lifetime.end.p0(i64 256, ptr nonnull %10) #33
  %49 = call i32 (ptr, ...) @cleanPrintfln(ptr noundef nonnull @.str.31)
  call void @llvm.lifetime.start.p0(i64 256, ptr nonnull %9) #33
  %50 = call i32 (ptr, ...) @cleanPrintfln(ptr noundef nonnull @.str.727)
  %51 = call ptr @dictGetIterator(ptr noundef %4) #33
  %52 = call ptr @dictNext(ptr noundef %51) #33
  %.not16.i = icmp eq ptr %52, null
  br i1 %.not16.i, label %displayKeyStatsLengthType.exit, label %.lr.ph.i20

.lr.ph.i20:                                       ; preds = %displayKeyStatsSizeType.exit, %72
  %53 = phi ptr [ %73, %72 ], [ %52, %displayKeyStatsSizeType.exit ]
  %.017.i = phi i32 [ %.1.i21, %72 ], [ %50, %displayKeyStatsSizeType.exit ]
  %54 = call ptr @dictGetVal(ptr noundef nonnull %53) #33
  %55 = getelementptr inbounds nuw i8, ptr %54, i64 48
  %56 = load ptr, ptr %55, align 8, !tbaa !209
  %.not14.i = icmp eq ptr %56, null
  br i1 %.not14.i, label %72, label %57

57:                                               ; preds = %.lr.ph.i20
  %58 = getelementptr inbounds nuw i8, ptr %54, i64 16
  %59 = load ptr, ptr %58, align 8, !tbaa !327
  %60 = call i32 @strcmp(ptr noundef nonnull dereferenceable(1) %59, ptr noundef nonnull dereferenceable(6) @.str.98) #35
  %.not15.i = icmp eq i32 %60, 0
  %61 = getelementptr inbounds nuw i8, ptr %54, i64 24
  %62 = load i64, ptr %61, align 8, !tbaa !308
  br i1 %.not15.i, label %63, label %65

63:                                               ; preds = %57
  %64 = call ptr @bytesToHuman(ptr noundef nonnull %9, i64 noundef 256, i64 noundef %62)
  br label %67

65:                                               ; preds = %57
  %66 = call i32 (ptr, i64, ptr, ...) @snprintf(ptr noundef nonnull dereferenceable(1) %9, i64 noundef 256, ptr noundef nonnull @.str.728, i64 noundef %62, ptr noundef nonnull %59) #33
  br label %67

67:                                               ; preds = %65, %63
  %68 = load ptr, ptr %54, align 8, !tbaa !211
  %69 = load ptr, ptr %55, align 8, !tbaa !209
  %70 = call i32 (ptr, ...) @cleanPrintfln(ptr noundef nonnull @.str.729, ptr noundef %68, ptr noundef %69, ptr noundef nonnull %9)
  %71 = add nsw i32 %70, %.017.i
  br label %72

72:                                               ; preds = %67, %.lr.ph.i20
  %.1.i21 = phi i32 [ %71, %67 ], [ %.017.i, %.lr.ph.i20 ]
  %73 = call ptr @dictNext(ptr noundef %51) #33
  %.not.i22 = icmp eq ptr %73, null
  br i1 %.not.i22, label %displayKeyStatsLengthType.exit, label %.lr.ph.i20, !llvm.loop !529

displayKeyStatsLengthType.exit:                   ; preds = %72, %displayKeyStatsSizeType.exit
  %.0.lcssa.i23 = phi i32 [ %50, %displayKeyStatsSizeType.exit ], [ %.1.i21, %72 ]
  call void @dictReleaseIterator(ptr noundef %51) #33
  call void @llvm.lifetime.end.p0(i64 256, ptr nonnull %9) #33
  %.not = icmp eq i32 %7, 0
  br i1 %.not, label %83, label %74

74:                                               ; preds = %displayKeyStatsLengthType.exit
  %75 = add nsw i32 %15, %13
  %76 = add nsw i32 %75, %16
  %77 = add nsw i32 %76, %.0.lcssa.i
  %78 = add nsw i32 %77, %32
  %79 = add nsw i32 %78, %.0.lcssa.i19
  %80 = add nsw i32 %79, %49
  %81 = add nsw i32 %80, %.0.lcssa.i23
  %82 = call i32 (ptr, ...) @printf(ptr noundef nonnull dereferenceable(1) @.str.678, i32 noundef %81)
  br label %83

83:                                               ; preds = %74, %displayKeyStatsLengthType.exit
  %84 = load ptr, ptr @stdout, align 8, !tbaa !5
  %85 = call i32 @fflush(ptr noundef %84)
  call void @llvm.lifetime.end.p0(i64 256, ptr nonnull %12) #33
  ret void
}